; Function Attrs: mustprogress uwtable
define noundef i64 @_ZNK5arrow18RunEndEncodedArray18FindPhysicalOffsetEv(ptr noundef nonnull readonly align 8 captures(none) dereferenceable(64) %0) local_unnamed_addr #1 align 2 personality ptr @__gxx_personality_v0 {
  %2 = alloca %"struct.arrow::ArraySpan", align 8
  call void @llvm.lifetime.start.p0(i64 128, ptr nonnull %2) #19
  %3 = getelementptr inbounds nuw i8, ptr %0, i64 8
  %4 = load ptr, ptr %3, align 8, !tbaa !34
  %5 = getelementptr inbounds nuw i8, ptr %2, i64 16
  call void @llvm.memset.p0.i64(ptr noundef nonnull align 8 dereferenceable(128) %2, i8 0, i64 16, i1 false)
  store i64 -1, ptr %5, align 8, !tbaa !299
  %6 = getelementptr inbounds nuw i8, ptr %2, i64 24
  call void @llvm.memset.p0.i64(ptr noundef nonnull align 8 dereferenceable(104) %6, i8 0, i64 104, i1 false)
  invoke void @_ZN5arrow9ArraySpan10SetMembersERKNS_9ArrayDataE(ptr noundef nonnull align 8 dereferenceable(128) %2, ptr noundef nonnull align 8 dereferenceable(120) %4)
          to label %_ZN5arrow9ArraySpanC2ERKNS_9ArrayDataE.exit unwind label %7

common.resume:                                    ; preds = %25, %7
  %common.resume.op = phi { ptr, i32 } [ %8, %7 ], [ %26, %25 ]
  resume { ptr, i32 } %common.resume.op

7:                                                ; preds = %1
  %8 = landingpad { ptr, i32 }
          cleanup
  %9 = getelementptr inbounds nuw i8, ptr %2, i64 104
  call void @_ZNSt6vectorIN5arrow9ArraySpanESaIS1_EED2Ev(ptr noundef nonnull align 8 dereferenceable(24) %9) #19
  br label %common.resume

_ZN5arrow9ArraySpanC2ERKNS_9ArrayDataE.exit:      ; preds = %1
  %10 = load i64, ptr %6, align 8, !tbaa !306
  %11 = invoke noundef i64 @_ZN5arrow8ree_util17FindPhysicalIndexERKNS_9ArraySpanEll(ptr noundef nonnull align 8 dereferenceable(128) %2, i64 noundef 0, i64 noundef %10)
          to label %12 unwind label %25

12:                                               ; preds = %_ZN5arrow9ArraySpanC2ERKNS_9ArrayDataE.exit
  %13 = getelementptr inbounds nuw i8, ptr %2, i64 104
  %14 = load ptr, ptr %13, align 8, !tbaa !307
  %15 = getelementptr inbounds nuw i8, ptr %2, i64 112
  %16 = load ptr, ptr %15, align 8, !tbaa !308
  %.not.i.i12.i.i = icmp eq ptr %14, %16
  br i1 %.not.i.i12.i.i, label %_ZSt8_DestroyIPN5arrow9ArraySpanES1_EvT_S3_RSaIT0_E.exit.i.i, label %.lr.ph.i.i

.lr.ph.i.i:                                       ; preds = %12, %.lr.ph.i.i
  %.0.i.i3.i.i = phi ptr [ %17, %.lr.ph.i.i ], [ %14, %12 ]
  call void @_ZSt8_DestroyIN5arrow9ArraySpanEEvPT_(ptr noundef %.0.i.i3.i.i)
  %17 = getelementptr inbounds nuw i8, ptr %.0.i.i3.i.i, i64 128
  %.not.i.i1.i.i = icmp eq ptr %17, %16
  br i1 %.not.i.i1.i.i, label %_ZSt8_DestroyIPN5arrow9ArraySpanES1_EvT_S3_RSaIT0_E.exit.loopexit.i.i, label %.lr.ph.i.i, !llvm.loop !309

_ZSt8_DestroyIPN5arrow9ArraySpanES1_EvT_S3_RSaIT0_E.exit.loopexit.i.i: ; preds = %.lr.ph.i.i
  %.pre.i.i = load ptr, ptr %13, align 8, !tbaa !307
  br label %_ZSt8_DestroyIPN5arrow9ArraySpanES1_EvT_S3_RSaIT0_E.exit.i.i

_ZSt8_DestroyIPN5arrow9ArraySpanES1_EvT_S3_RSaIT0_E.exit.i.i: ; preds = %_ZSt8_DestroyIPN5arrow9ArraySpanES1_EvT_S3_RSaIT0_E.exit.loopexit.i.i, %12
  %18 = phi ptr [ %.pre.i.i, %_ZSt8_DestroyIPN5arrow9ArraySpanES1_EvT_S3_RSaIT0_E.exit.loopexit.i.i ], [ %14, %12 ]
  %.not.i.i.i.i = icmp eq ptr %18, null
  br i1 %.not.i.i.i.i, label %_ZN5arrow9ArraySpanD2Ev.exit, label %19

19:                                               ; preds = %_ZSt8_DestroyIPN5arrow9ArraySpanES1_EvT_S3_RSaIT0_E.exit.i.i
  %20 = getelementptr inbounds nuw i8, ptr %2, i64 120
  %21 = load ptr, ptr %20, align 8, !tbaa !310
  %22 = ptrtoint ptr %21 to i64
  %23 = ptrtoint ptr %18 to i64
  %24 = sub i64 %22, %23
  call void @_ZdlPvm(ptr noundef nonnull %18, i64 noundef %24) #21
  br label %_ZN5arrow9ArraySpanD2Ev.exit

_ZN5arrow9ArraySpanD2Ev.exit:                     ; preds = %_ZSt8_DestroyIPN5arrow9ArraySpanES1_EvT_S3_RSaIT0_E.exit.i.i, %19
  call void @llvm.lifetime.end.p0(i64 128, ptr nonnull %2) #19
  ret i64 %11

25:                                               ; preds = %_ZN5arrow9ArraySpanC2ERKNS_9ArrayDataE.exit
  %26 = landingpad { ptr, i32 }
          cleanup
  call void @_ZN5arrow9ArraySpanD2Ev(ptr noundef nonnull align 8 dereferenceable(128) %2) #19
  call void @llvm.lifetime.end.p0(i64 128, ptr nonnull %2) #19
  br label %common.resume
}